(dp1
(S'conv1_1'
p2
S'corr_rs'
p3
S'diff'
p4
tp5
cnumpy.core.multiarray
scalar
p6
(cnumpy
dtype
p7
(S'f8'
I0
I1
tRp8
(I3
S'<'
NNNI-1
I-1
I0
tbS'\xa1j\xfe+.=\xe6>'
tRp9
s(S'pool1'
p10
g3
S'val'
p11
tp12
g6
(g8
S'\x00\x00\x00\xdd?/x?'
tRp13
s(S'conv1_2'
p14
g3
g4
tp15
g6
(g8
S'\xd1F\x8e\x12q\x00\xe8>'
tRp16
s(g14
g3
g11
tp17
g6
(g8
S'\x00\x00\x00&\xcd\xbfp?'
tRp18
s(g10
g3
g4
tp19
g6
(g8
S'\xd6\x1cBP\x80\xab\x0f?'
tRp20
s(g2
g3
g11
tp21
g6
(g8
S'\x00\x00@\x91\xd9\xc0Q?'
tRp22
s.