(dp1
(S'conv1_1'
p2
S'corr_rs'
p3
S'diff'
p4
tp5
cnumpy.core.multiarray
scalar
p6
(cnumpy
dtype
p7
(S'f8'
I0
I1
tRp8
(I3
S'<'
NNNI-1
I-1
I0
tbS'm2w{c\xb4\xf2>'
tRp9
s(S'pool1'
p10
g3
S'val'
p11
tp12
g6
(g8
S'\x00\x00\x00&n\x1f\x85?'
tRp13
s(S'conv1_2'
p14
g3
g4
tp15
g6
(g8
S'M\x01\xda2\xc4\xe2\xf0>'
tRp16
s(g14
g3
g11
tp17
g6
(g8
S'\x00\x00\x00`\xb5@}?'
tRp18
s(g10
g3
g4
tp19
g6
(g8
S'\xe3\xc7\xb84%\x83\x15?'
tRp20
s(g2
g3
g11
tp21
g6
(g8
S'\x00\x00\x80\x82R\xc2`?'
tRp22
s.