(dp1
(S'conv1_1'
p2
S'corr_rs'
p3
S'diff'
p4
tp5
cnumpy.core.multiarray
scalar
p6
(cnumpy
dtype
p7
(S'f8'
I0
I1
tRp8
(I3
S'<'
NNNI-1
I-1
I0
tbS'\x1e^3Ru\xd6\xe8>'
tRp9
s(S'pool1'
p10
g3
S'val'
p11
tp12
g6
(g8
S'\x00\x00\x00\xe6\xabbz?'
tRp13
s(S'conv1_2'
p14
g3
g4
tp15
g6
(g8
S'\x82r\xab\xacl\x81\xe9>'
tRp16
s(g14
g3
g11
tp17
g6
(g8
S'\x00\x00\x00\xf6\x92Ar?'
tRp18
s(g10
g3
g4
tp19
g6
(g8
S'>\x04A\x82\x0b\xcd\x10?'
tRp20
s(g2
g3
g11
tp21
g6
(g8
S'\x00\x00\x00I\xd5_S?'
tRp22
s.