(dp1
(S'conv1_1'
p2
S'corr_rs'
p3
S'diff'
p4
tp5
cnumpy.core.multiarray
scalar
p6
(cnumpy
dtype
p7
(S'f8'
I0
I1
tRp8
(I3
S'<'
NNNI-1
I-1
I0
tbS'\xde\xda\xdbzi\xa1\xe5>'
tRp9
s(S'pool1'
p10
g3
S'val'
p11
tp12
g6
(g8
S'\x00\x00\x008\x0ezw?'
tRp13
s(S'conv1_2'
p14
g3
g4
tp15
g6
(g8
S'\x13{\xe9zd\x00\xe8>'
tRp16
s(g14
g3
g11
tp17
g6
(g8
S'\x00\x00\x00N\xfcYp?'
tRp18
s(g10
g3
g4
tp19
g6
(g8
S'a:9\x10M\xf5\x0e?'
tRp20
s(g2
g3
g11
tp21
g6
(g8
S'\x00\x00\x80_\xa4\x97Q?'
tRp22
s.