(dp1
(S'conv1_1'
p2
S'corr_rs'
p3
S'val'
p4
tp5
cnumpy.core.multiarray
scalar
p6
(cnumpy
dtype
p7
(S'f8'
I0
I1
tRp8
(I3
S'<'
NNNI-1
I-1
I0
tbS'\x00\x00@\x01\xd8>V?'
tRp9
s(g2
g3
S'diff'
p10
tp11
g6
(g8
S'\xcb\xaf\xb2$\xe6B\xe4>'
tRp12
s.