(dp1
(S'conv1_1'
p2
S'corr_rs'
p3
S'val'
p4
tp5
cnumpy.core.multiarray
scalar
p6
(cnumpy
dtype
p7
(S'f8'
I0
I1
tRp8
(I3
S'<'
NNNI-1
I-1
I0
tbS'\x00\x00\x80\xe4\xdd\xb6\x80?'
tRp9
s(g2
g3
S'diff'
p10
tp11
g6
(g8
S' \x1e\xa74\xb4\xa3\x01?'
tRp12
s.