(dp1
(S'pool2'
p2
S'corr_rs'
p3
S'diff'
p4
tp5
cnumpy.core.multiarray
scalar
p6
(cnumpy
dtype
p7
(S'f8'
I0
I1
tRp8
(I3
S'<'
NNNI-1
I-1
I0
tbS']\x9bw\xc6"z\x16?'
tRp9
s(S'conv2_1'
p10
g3
g4
tp11
g6
(g8
S'\x8fZ\x83y\x81o\xf0>'
tRp12
s(S'conv1_1'
p13
g3
g4
tp14
g6
(g8
S'(\x04\xf1\xed\xe4\xe0\xdc>'
tRp15
s(S'pool1'
p16
g3
S'val'
p17
tp18
g6
(g8
S'\x00\x00\x00r\xf4YG?'
tRp19
s(S'conv1_2'
p20
g3
g4
tp21
g6
(g8
S"Db\xdd!)'\xce>"
tRp22
s(g20
g3
g17
tp23
g6
(g8
S'\x00\x00\x00\xcc\xd2\xd6K?'
tRp24
s(g16
g3
g4
tp25
g6
(g8
S'\xa8\x81f\x12\x9e0\xf2>'
tRp26
s(g13
g3
g17
tp27
g6
(g8
S'\x00\x00@\xc3\xbc~A?'
tRp28
s(g10
g3
g17
tp29
g6
(g8
S'\x00\x00\x00\x88\xc1Sg?'
tRp30
s(g2
g3
g17
tp31
g6
(g8
S'\x00\x00\x000:_x?'
tRp32
s(S'conv2_2'
p33
g3
g17
tp34
g6
(g8
S'\x00\x00\x00`\xcdfv?'
tRp35
s(g33
g3
g4
tp36
g6
(g8
S'\xd4\xe2<\xd2\xba\xfb\xef>'
tRp37
s.