(dp1
(S'pool2'
p2
S'corr_rs'
p3
S'diff'
p4
tp5
cnumpy.core.multiarray
scalar
p6
(cnumpy
dtype
p7
(S'f8'
I0
I1
tRp8
(I3
S'<'
NNNI-1
I-1
I0
tbS'\x93xS\xd2h\xd5!?'
tRp9
s(S'conv2_1'
p10
g3
g4
tp11
g6
(g8
S'\x02\xcc\xad3\xb8D\xfa>'
tRp12
s(S'conv1_1'
p13
g3
g4
tp14
g6
(g8
S'\xcb/\xe0E\xf1d\xee>'
tRp15
s(S'pool1'
p16
g3
S'val'
p17
tp18
g6
(g8
S'\x00\x00\x00PL\xc7Y?'
tRp19
s(S'conv1_2'
p20
g3
g4
tp21
g6
(g8
S"d\x05\rJ'\x12\xd9>"
tRp22
s(g20
g3
g17
tp23
g6
(g8
S'\x00\x00\x00L9\x1a_?'
tRp24
s(g16
g3
g4
tp25
g6
(g8
S',\xe0xTdL\xfd>'
tRp26
s(g13
g3
g17
tp27
g6
(g8
S'\x00\x00\x80\x15\xd2\x98X?'
tRp28
s(g10
g3
g17
tp29
g6
(g8
S"\x00\x00\x00\x90'\x9dt?"
tRp30
s(g2
g3
g17
tp31
g6
(g8
S'\x00\x00\x00\xc4\x08`\x89?'
tRp32
s(S'conv2_2'
p33
g3
g17
tp34
g6
(g8
S'\x00\x00\x00\x84\xbaX\x88?'
tRp35
s(g33
g3
g4
tp36
g6
(g8
S'\xdc^a\xf0\x91{\xf9>'
tRp37
s.