(dp1
(S'pool2'
p2
S'corr_rs'
p3
S'diff'
p4
tp5
cnumpy.core.multiarray
scalar
p6
(cnumpy
dtype
p7
(S'f8'
I0
I1
tRp8
(I3
S'<'
NNNI-1
I-1
I0
tbS'\x00>\r\\q\xfc\x12?'
tRp9
s(S'conv2_1'
p10
g3
g4
tp11
g6
(g8
S'z\xa1aX}\xd1\xeb>'
tRp12
s(S'conv1_1'
p13
g3
g4
tp14
g6
(g8
S'\xd6<\t\xeb\x1f\xc8\xd5>'
tRp15
s(S'pool1'
p16
g3
S'val'
p17
tp18
g6
(g8
S'\x00\x00\x00 LsA?'
tRp19
s(S'conv1_2'
p20
g3
g4
tp21
g6
(g8
S'/\xcf\n\xb6\xc34\xca>'
tRp22
s(g20
g3
g17
tp23
g6
(g8
S'\x00\x00\x00\xb4\xbc.E?'
tRp24
s(g16
g3
g4
tp25
g6
(g8
S'"\x19\xb7n\x0b\xed\xee>'
tRp26
s(g13
g3
g17
tp27
g6
(g8
S'\x00\x00\x00\xaf*77?'
tRp28
s(g10
g3
g17
tp29
g6
(g8
S'\x00\x00\x00\xaa\xbd\x80b?'
tRp30
s(g2
g3
g17
tp31
g6
(g8
S'\x00\x00\x00\x1eJlr?'
tRp32
s(S'conv2_2'
p33
g3
g17
tp34
g6
(g8
S'\x00\x00\x008\xdf}p?'
tRp35
s(g33
g3
g4
tp36
g6
(g8
S'\xb5\x04\xad\xf7\x0e\x0b\xeb>'
tRp37
s.