(dp1
(S'pool2'
p2
S'corr_rs'
p3
S'diff'
p4
tp5
cnumpy.core.multiarray
scalar
p6
(cnumpy
dtype
p7
(S'f8'
I0
I1
tRp8
(I3
S'<'
NNNI-1
I-1
I0
tbS'\nm\xbaF\x02J\x10?'
tRp9
s(S'conv2_1'
p10
g3
g4
tp11
g6
(g8
S'>(\x13/qz\xe8>'
tRp12
s(S'conv1_1'
p13
g3
g4
tp14
g6
(g8
S'8\xdf\xba\xd9\xe5a\xd1>'
tRp15
s(S'pool1'
p16
g3
S'val'
p17
tp18
g6
(g8
S'\x00\x00\x00\x98L\x04<?'
tRp19
s(S'conv1_2'
p20
g3
g4
tp21
g6
(g8
S'\xa7\xeaG7k\xf1\xc6>'
tRp22
s(g20
g3
g17
tp23
g6
(g8
S'\x00\x00\x00\\f\xa5@?'
tRp24
s(g16
g3
g4
tp25
g6
(g8
S'R\xa0\x17*\xc1J\xeb>'
tRp26
s(g13
g3
g17
tp27
g6
(g8
S'\x00\x00\x00fq\xa81?'
tRp28
s(g10
g3
g17
tp29
g6
(g8
S'\x00\x00\x00\xf6\x91\x85_?'
tRp30
s(g2
g3
g17
tp31
g6
(g8
S'\x00\x00\x00T\n/m?'
tRp32
s(S'conv2_2'
p33
g3
g17
tp34
g6
(g8
S'\x00\x00\x00\xdc\xc6\x10j?'
tRp35
s(g33
g3
g4
tp36
g6
(g8
S'l\x9d\x9d2]\x82\xe7>'
tRp37
s.