(dp1
(S'pool2'
p2
S'corr_rs'
p3
S'diff'
p4
tp5
cnumpy.core.multiarray
scalar
p6
(cnumpy
dtype
p7
(S'f8'
I0
I1
tRp8
(I3
S'<'
NNNI-1
I-1
I0
tbS':t\x81j\x8cv\x13?'
tRp9
s(S'conv2_1'
p10
g3
g4
tp11
g6
(g8
S'NW2\x16\x9c\xa2\xec>'
tRp12
s(S'conv1_1'
p13
g3
g4
tp14
g6
(g8
S'$\x025\xba\xa7\xcb\xd6>'
tRp15
s(S'pool1'
p16
g3
S'val'
p17
tp18
g6
(g8
S'\x00\x00\x00\xb7l`B?'
tRp19
s(S'conv1_2'
p20
g3
g4
tp21
g6
(g8
S'{$\x9aTr\xa7\xca>'
tRp22
s(g20
g3
g17
tp23
g6
(g8
S'\x00\x00\x00"\x989F?'
tRp24
s(g16
g3
g4
tp25
g6
(g8
S'\xe3\x1c;]q\xd6\xef>'
tRp26
s(g13
g3
g17
tp27
g6
(g8
S'\x00\x00\x00\x1d\xf3S9?'
tRp28
s(g10
g3
g17
tp29
g6
(g8
S'\x00\x00\x000\xb0/c?'
tRp30
s(g2
g3
g17
tp31
g6
(g8
S'\x00\x00\x00\xf41gs?'
tRp32
s(S'conv2_2'
p33
g3
g17
tp34
g6
(g8
S'\x00\x00\x00\xae\xe9yq?'
tRp35
s(g33
g3
g4
tp36
g6
(g8
S"t'\x04\xe9\xbf\xeb\xeb>"
tRp37
s.